target datalayout = "e-m:e-p270:32:32-p271:32:32-p272:64:64-i64:64-i128:128-f80:128-n8:16:32:64-S128"
target triple = "x86_64-pc-linux-gnu"

%struct._tocEntry = type { ptr, ptr, %struct.CatalogId, i32, i32, i8, ptr, ptr, ptr, ptr, i8, ptr, ptr, ptr, ptr, ptr, ptr, i32, ptr, ptr, ptr, i64, i32, i8, ptr, ptr, i32, ptr, i32, ptr, i32 }
%struct.CatalogId = type { i32, i32 }
%struct.PQExpBufferData = type { ptr, i64, i64 }

@.str.190 = private unnamed_addr constant [28 x i8] c"-- load via partition root \00", align 1
@.str.191 = private unnamed_addr constant [9 x i8] c"COPY %s \00", align 1

; Function Attrs: nounwind uwtable
define internal zeroext i1 @is_load_via_partition_root(ptr noundef %0) #0 {
  %2 = alloca i1, align 1
  %3 = alloca ptr, align 8
  %4 = alloca ptr, align 8
  %5 = alloca i8, align 1
  store ptr %0, ptr %3, align 8
  %6 = load ptr, ptr %3, align 8
  %7 = getelementptr inbounds nuw %struct._tocEntry, ptr %6, i32 0, i32 13
  %8 = load ptr, ptr %7, align 8
  %9 = icmp ne ptr %8, null
  br i1 %9, label %10, label %17

10:                                               ; preds = %1
  %11 = load ptr, ptr %3, align 8
  %12 = getelementptr inbounds nuw %struct._tocEntry, ptr %11, i32 0, i32 13
  %13 = load ptr, ptr %12, align 8
  %14 = call i32 @strncmp(ptr noundef %13, ptr noundef @.str.190, i64 noundef 27) #14
  %15 = icmp eq i32 %14, 0
  br i1 %15, label %16, label %17

16:                                               ; preds = %10
  store i1 true, ptr %2, align 1
  br label %55

17:                                               ; preds = %10, %1
  %18 = load ptr, ptr %3, align 8
  %19 = getelementptr inbounds nuw %struct._tocEntry, ptr %18, i32 0, i32 15
  %20 = load ptr, ptr %19, align 8
  %21 = icmp ne ptr %20, null
  br i1 %21, label %22, label %54

22:                                               ; preds = %17
  %23 = load ptr, ptr %3, align 8
  %24 = getelementptr inbounds nuw %struct._tocEntry, ptr %23, i32 0, i32 15
  %25 = load ptr, ptr %24, align 8
  %26 = load i8, ptr %25, align 1
  %27 = sext i8 %26 to i32
  %28 = icmp ne i32 %27, 0
  br i1 %28, label %29, label %54

29:                                               ; preds = %22
  call void @llvm.lifetime.start.p0(i64 8, ptr %4) #11
  %30 = call ptr @createPQExpBuffer()
  store ptr %30, ptr %4, align 8
  call void @llvm.lifetime.start.p0(i64 1, ptr %5) #11
  %31 = load ptr, ptr %4, align 8
  %32 = load ptr, ptr %3, align 8
  %33 = getelementptr inbounds nuw %struct._tocEntry, ptr %32, i32 0, i32 7
  %34 = load ptr, ptr %33, align 8
  %35 = load ptr, ptr %3, align 8
  %36 = getelementptr inbounds nuw %struct._tocEntry, ptr %35, i32 0, i32 6
  %37 = load ptr, ptr %36, align 8
  %38 = call ptr @fmtQualifiedId(ptr noundef %34, ptr noundef %37)
  call void (ptr, ptr, ...) @appendPQExpBuffer(ptr noundef %31, ptr noundef @.str.191, ptr noundef %38)
  %39 = load ptr, ptr %3, align 8
  %40 = getelementptr inbounds nuw %struct._tocEntry, ptr %39, i32 0, i32 15
  %41 = load ptr, ptr %40, align 8
  %42 = load ptr, ptr %4, align 8
  %43 = getelementptr inbounds nuw %struct.PQExpBufferData, ptr %42, i32 0, i32 0
  %44 = load ptr, ptr %43, align 8
  %45 = load ptr, ptr %4, align 8
  %46 = getelementptr inbounds nuw %struct.PQExpBufferData, ptr %45, i32 0, i32 1
  %47 = load i64, ptr %46, align 8
  %48 = call i32 @strncmp(ptr noundef %41, ptr noundef %44, i64 noundef %47) #14
  %49 = icmp ne i32 %48, 0
  %50 = zext i1 %49 to i8
  store i8 %50, ptr %5, align 1
  %51 = load ptr, ptr %4, align 8
  call void @destroyPQExpBuffer(ptr noundef %51)
  %52 = load i8, ptr %5, align 1, !range !4, !noundef !5
  %53 = trunc i8 %52 to i1
  store i1 %53, ptr %2, align 1
  call void @llvm.lifetime.end.p0(i64 1, ptr %5) #11
  call void @llvm.lifetime.end.p0(i64 8, ptr %4) #11
  br label %55

54:                                               ; preds = %22, %17
  store i1 false, ptr %2, align 1
  br label %55

55:                                               ; preds = %54, %29, %16
  %56 = load i1, ptr %2, align 1
  ret i1 %56
}