; Function Attrs: nounwind uwtable
define internal fastcc zeroext i1 @is_load_via_partition_root(ptr noundef readonly captures(none) %0) unnamed_addr #0 {
  %2 = getelementptr inbounds nuw i8, ptr %0, i64 96
  %3 = load ptr, ptr %2, align 8
  %.not = icmp eq ptr %3, null
  br i1 %.not, label %7, label %4

4:                                                ; preds = %1
  %5 = tail call i32 @strncmp(ptr noundef nonnull dereferenceable(1) %3, ptr noundef nonnull dereferenceable(28) @.str.190, i64 noundef 27) #24
  %6 = icmp eq i32 %5, 0
  br i1 %6, label %25, label %7

7:                                                ; preds = %4, %1
  %8 = getelementptr inbounds nuw i8, ptr %0, i64 112
  %9 = load ptr, ptr %8, align 8
  %.not14 = icmp eq ptr %9, null
  br i1 %.not14, label %25, label %10

10:                                               ; preds = %7
  %11 = load i8, ptr %9, align 1
  %.not15 = icmp eq i8 %11, 0
  br i1 %.not15, label %25, label %12

12:                                               ; preds = %10
  %13 = tail call ptr @createPQExpBuffer() #22
  %14 = getelementptr inbounds nuw i8, ptr %0, i64 48
  %15 = load ptr, ptr %14, align 8
  %16 = getelementptr inbounds nuw i8, ptr %0, i64 40
  %17 = load ptr, ptr %16, align 8
  %18 = tail call ptr @fmtQualifiedId(ptr noundef %15, ptr noundef %17) #22
  tail call void (ptr, ptr, ...) @appendPQExpBuffer(ptr noundef %13, ptr noundef nonnull @.str.191, ptr noundef %18) #22
  %19 = load ptr, ptr %8, align 8
  %20 = load ptr, ptr %13, align 8
  %21 = getelementptr inbounds nuw i8, ptr %13, i64 8
  %22 = load i64, ptr %21, align 8
  %23 = tail call i32 @strncmp(ptr noundef %19, ptr noundef %20, i64 noundef %22) #24
  %24 = icmp ne i32 %23, 0
  tail call void @destroyPQExpBuffer(ptr noundef nonnull %13) #22
  br label %25

25:                                               ; preds = %7, %10, %4, %12
  %.0 = phi i1 [ %24, %12 ], [ true, %4 ], [ false, %10 ], [ false, %7 ]
  ret i1 %.0
}